target datalayout = "e-m:e-p270:32:32-p271:32:32-p272:64:64-i64:64-i128:128-f80:128-n8:16:32:64-S128"
target triple = "x86_64-pc-linux-gnu"

%"class.google::protobuf::internal::ExtensionSet" = type { ptr, i16, i16, %"union.google::protobuf::internal::ExtensionSet::AllocatedData" }
%"union.google::protobuf::internal::ExtensionSet::AllocatedData" = type { ptr }
%"struct.std::_Rb_tree_iterator" = type { ptr }
%"struct.std::_Rb_tree_node_base" = type { i32, ptr, ptr, ptr }
%"struct.google::protobuf::internal::ExtensionSet::Extension" = type { %union.anon.4, i8, i8, i8, i8, i32, ptr }
%union.anon.4 = type { i64 }
%class.anon.15 = type { ptr, ptr, ptr }
%"struct.std::pair.16" = type { i32, %"struct.google::protobuf::internal::ExtensionSet::Extension" }
%"struct.std::_Rb_tree_node" = type { %"struct.std::_Rb_tree_node_base", %"struct.__gnu_cxx::__aligned_membuf" }
%"struct.__gnu_cxx::__aligned_membuf" = type { [32 x i8] }

; Function Attrs: mustprogress nounwind uwtable
define linkonce_odr hidden noundef ptr @_ZN9__gnu_cxx16__aligned_membufISt4pairIKiN6google8protobuf8internal12ExtensionSet9ExtensionEEE7_M_addrEv(ptr noundef nonnull align 8 dereferenceable(32) %0) #4 comdat align 2 {
  %2 = alloca ptr, align 8
  store ptr %0, ptr %2, align 8, !tbaa !644
  %3 = load ptr, ptr %2, align 8
  %4 = getelementptr inbounds nuw %"struct.__gnu_cxx::__aligned_membuf", ptr %3, i32 0, i32 0
  ret ptr %4
}

; Function Attrs: mustprogress nounwind uwtable
define linkonce_odr hidden noundef ptr @_ZN9__gnu_cxx16__aligned_membufISt4pairIKiN6google8protobuf8internal12ExtensionSet9ExtensionEEE6_M_ptrEv(ptr noundef nonnull align 8 dereferenceable(32) %0) #4 comdat align 2 {
  %2 = alloca ptr, align 8
  store ptr %0, ptr %2, align 8, !tbaa !644
  %3 = load ptr, ptr %2, align 8
  %4 = call noundef ptr @_ZN9__gnu_cxx16__aligned_membufISt4pairIKiN6google8protobuf8internal12ExtensionSet9ExtensionEEE7_M_addrEv(ptr noundef nonnull align 8 dereferenceable(32) %3) #3
  ret ptr %4
}

; Function Attrs: mustprogress nounwind uwtable
define linkonce_odr hidden noundef ptr @_ZNSt13_Rb_tree_nodeISt4pairIKiN6google8protobuf8internal12ExtensionSet9ExtensionEEE9_M_valptrEv(ptr noundef nonnull align 8 dereferenceable(64) %0) #4 comdat align 2 {
  %2 = alloca ptr, align 8
  store ptr %0, ptr %2, align 8, !tbaa !633
  %3 = load ptr, ptr %2, align 8
  %4 = getelementptr inbounds nuw %"struct.std::_Rb_tree_node", ptr %3, i32 0, i32 1
  %5 = call noundef ptr @_ZN9__gnu_cxx16__aligned_membufISt4pairIKiN6google8protobuf8internal12ExtensionSet9ExtensionEEE6_M_ptrEv(ptr noundef nonnull align 8 dereferenceable(32) %4) #3
  ret ptr %5
}

; Function Attrs: mustprogress nounwind uwtable
define linkonce_odr hidden noundef nonnull align 8 dereferenceable(8) ptr @_ZNSt17_Rb_tree_iteratorISt4pairIKiN6google8protobuf8internal12ExtensionSet9ExtensionEEEppEv(ptr noundef nonnull align 8 dereferenceable(8) %0) #4 comdat align 2 {
  %2 = alloca ptr, align 8
  store ptr %0, ptr %2, align 8, !tbaa !396
  %3 = load ptr, ptr %2, align 8
  %4 = getelementptr inbounds nuw %"struct.std::_Rb_tree_iterator", ptr %3, i32 0, i32 0
  %5 = load ptr, ptr %4, align 8, !tbaa !398
  %6 = call noundef ptr @_ZSt18_Rb_tree_incrementPSt18_Rb_tree_node_base(ptr noundef %5) #27
  %7 = getelementptr inbounds nuw %"struct.std::_Rb_tree_iterator", ptr %3, i32 0, i32 0
  store ptr %6, ptr %7, align 8, !tbaa !398
  ret ptr %3
}

; Function Attrs: inlinehint mustprogress uwtable
define internal void @"_ZZN6google8protobuf8internal12ExtensionSet9MergeFromEPKNS0_11MessageLiteERKS2_ENK3$_0clEiRKNS2_9ExtensionE"(ptr noundef nonnull align 8 dereferenceable(24) %0, i32 noundef %1, ptr noundef nonnull align 8 dereferenceable(24) %2) #13 align 2 {
  %4 = alloca ptr, align 8
  %5 = alloca i32, align 4
  %6 = alloca ptr, align 8
  store ptr %0, ptr %4, align 8, !tbaa !39
  store i32 %1, ptr %5, align 4, !tbaa !10
  store ptr %2, ptr %6, align 8, !tbaa !59
  %7 = load ptr, ptr %4, align 8
  %8 = getelementptr inbounds nuw %class.anon.15, ptr %7, i32 0, i32 1
  %9 = load ptr, ptr %8, align 8, !tbaa !356
  %10 = getelementptr inbounds nuw %class.anon.15, ptr %7, i32 0, i32 0
  %11 = load ptr, ptr %10, align 8, !tbaa !354
  %12 = load i32, ptr %5, align 4, !tbaa !10
  %13 = load ptr, ptr %6, align 8, !tbaa !59
  %14 = getelementptr inbounds nuw %class.anon.15, ptr %7, i32 0, i32 2
  %15 = load ptr, ptr %14, align 8, !tbaa !735
  %16 = getelementptr inbounds nuw %"class.google::protobuf::internal::ExtensionSet", ptr %15, i32 0, i32 0
  %17 = load ptr, ptr %16, align 8, !tbaa !47
  call void @_ZN6google8protobuf8internal12ExtensionSet26InternalExtensionMergeFromEPKNS0_11MessageLiteEiRKNS2_9ExtensionEPNS0_5ArenaE(ptr noundef nonnull align 8 dereferenceable(24) %9, ptr noundef %11, i32 noundef %12, ptr noundef nonnull align 8 dereferenceable(24) %13, ptr noundef %17)
  ret void
}

; Function Attrs: mustprogress nounwind uwtable
define linkonce_odr hidden noundef ptr @_ZNKSt17_Rb_tree_iteratorISt4pairIKiN6google8protobuf8internal12ExtensionSet9ExtensionEEEptEv(ptr noundef nonnull align 8 dereferenceable(8) %0) #4 comdat align 2 {
  %2 = alloca ptr, align 8
  store ptr %0, ptr %2, align 8, !tbaa !396
  %3 = load ptr, ptr %2, align 8
  %4 = getelementptr inbounds nuw %"struct.std::_Rb_tree_iterator", ptr %3, i32 0, i32 0
  %5 = load ptr, ptr %4, align 8, !tbaa !398
  %6 = call noundef ptr @_ZNSt13_Rb_tree_nodeISt4pairIKiN6google8protobuf8internal12ExtensionSet9ExtensionEEE9_M_valptrEv(ptr noundef nonnull align 8 dereferenceable(64) %5)
  ret ptr %6
}

; Function Attrs: mustprogress nounwind uwtable
define linkonce_odr noundef zeroext i1 @_ZStneRKSt17_Rb_tree_iteratorISt4pairIKiN6google8protobuf8internal12ExtensionSet9ExtensionEEESA_(ptr noundef nonnull align 8 dereferenceable(8) %0, ptr noundef nonnull align 8 dereferenceable(8) %1) #4 comdat {
  %3 = alloca ptr, align 8
  %4 = alloca ptr, align 8
  store ptr %0, ptr %3, align 8, !tbaa !396
  store ptr %1, ptr %4, align 8, !tbaa !396
  %5 = load ptr, ptr %3, align 8, !tbaa !396
  %6 = getelementptr inbounds nuw %"struct.std::_Rb_tree_iterator", ptr %5, i32 0, i32 0
  %7 = load ptr, ptr %6, align 8, !tbaa !398
  %8 = load ptr, ptr %4, align 8, !tbaa !396
  %9 = getelementptr inbounds nuw %"struct.std::_Rb_tree_iterator", ptr %8, i32 0, i32 0
  %10 = load ptr, ptr %9, align 8, !tbaa !398
  %11 = icmp ne ptr %7, %10
  ret i1 %11
}

; Function Attrs: mustprogress uwtable
define internal void @"_ZN6google8protobuf8internal12ExtensionSet7ForEachISt17_Rb_tree_iteratorISt4pairIKiNS2_9ExtensionEEEZNS2_9MergeFromEPKNS0_11MessageLiteERKS2_E3$_0EET0_T_SH_SG_"(ptr dead_on_unwind noalias writable sret(%class.anon.15) align 8 %0, ptr %1, ptr %2, ptr noundef byval(%class.anon.15) align 8 %3) #6 align 2 {
  %5 = alloca %"struct.std::_Rb_tree_iterator", align 8
  %6 = alloca %"struct.std::_Rb_tree_iterator", align 8
  %7 = alloca %"struct.std::_Rb_tree_iterator", align 8
  %8 = getelementptr inbounds nuw %"struct.std::_Rb_tree_iterator", ptr %5, i32 0, i32 0
  store ptr %1, ptr %8, align 8
  %9 = getelementptr inbounds nuw %"struct.std::_Rb_tree_iterator", ptr %6, i32 0, i32 0
  store ptr %2, ptr %9, align 8
  call void @llvm.lifetime.start.p0(i64 8, ptr %7) #3
  call void @llvm.memcpy.p0.p0.i64(ptr align 8 %7, ptr align 8 %5, i64 8, i1 false), !tbaa.struct !358
  br label %10

10:                                               ; preds = %19, %4
  %11 = call noundef zeroext i1 @_ZStneRKSt17_Rb_tree_iteratorISt4pairIKiN6google8protobuf8internal12ExtensionSet9ExtensionEEESA_(ptr noundef nonnull align 8 dereferenceable(8) %7, ptr noundef nonnull align 8 dereferenceable(8) %6) #3
  br i1 %11, label %13, label %12

12:                                               ; preds = %10
  call void @llvm.lifetime.end.p0(i64 8, ptr %7) #3
  br label %21

13:                                               ; preds = %10
  %14 = call noundef ptr @_ZNKSt17_Rb_tree_iteratorISt4pairIKiN6google8protobuf8internal12ExtensionSet9ExtensionEEEptEv(ptr noundef nonnull align 8 dereferenceable(8) %7) #3
  %15 = getelementptr inbounds nuw %"struct.std::pair.16", ptr %14, i32 0, i32 0
  %16 = load i32, ptr %15, align 8, !tbaa !365
  %17 = call noundef ptr @_ZNKSt17_Rb_tree_iteratorISt4pairIKiN6google8protobuf8internal12ExtensionSet9ExtensionEEEptEv(ptr noundef nonnull align 8 dereferenceable(8) %7) #3
  %18 = getelementptr inbounds nuw %"struct.std::pair.16", ptr %17, i32 0, i32 1
  call void @"_ZZN6google8protobuf8internal12ExtensionSet9MergeFromEPKNS0_11MessageLiteERKS2_ENK3$_0clEiRKNS2_9ExtensionE"(ptr noundef nonnull align 8 dereferenceable(24) %3, i32 noundef %16, ptr noundef nonnull align 8 dereferenceable(24) %18)
  br label %19

19:                                               ; preds = %13
  %20 = call noundef nonnull align 8 dereferenceable(8) ptr @_ZNSt17_Rb_tree_iteratorISt4pairIKiN6google8protobuf8internal12ExtensionSet9ExtensionEEEppEv(ptr noundef nonnull align 8 dereferenceable(8) %7) #3
  br label %10, !llvm.loop !733

21:                                               ; preds = %12
  call void @llvm.memcpy.p0.p0.i64(ptr align 8 %0, ptr align 8 %3, i64 24, i1 false), !tbaa.struct !368
  ret void
}