; Function Attrs: mustprogress uwtable
define internal fastcc void @"_ZN6google8protobuf8internal12ExtensionSet7ForEachISt17_Rb_tree_iteratorISt4pairIKiNS2_9ExtensionEEEZNS2_9MergeFromEPKNS0_11MessageLiteERKS2_E3$_0EET0_T_SH_SG_"(ptr dead_on_unwind noalias nonnull writable writeonly align 8 captures(none) %0, ptr readonly %1, ptr readnone %2, ptr noundef readonly byval(%class.anon.15) align 8 captures(none) %3) unnamed_addr #8 align 2 {
  %.not5 = icmp eq ptr %1, %2
  br i1 %.not5, label %._crit_edge, label %.lr.ph

.lr.ph:                                           ; preds = %4
  %5 = getelementptr inbounds nuw i8, ptr %3, i64 8
  %6 = load ptr, ptr %5, align 8, !tbaa !307
  %7 = load ptr, ptr %3, align 8, !tbaa !310
  %8 = getelementptr inbounds nuw i8, ptr %3, i64 16
  %9 = load ptr, ptr %8, align 8, !tbaa !311
  br label %10

._crit_edge:                                      ; preds = %10, %4
  call void @llvm.memcpy.p0.p0.i64(ptr noundef nonnull align 8 dereferenceable(24) %0, ptr noundef nonnull align 8 dereferenceable(24) %3, i64 24, i1 false), !tbaa.struct !312
  ret void

10:                                               ; preds = %.lr.ph, %10
  %.sroa.0.06 = phi ptr [ %1, %.lr.ph ], [ %15, %10 ]
  %11 = getelementptr inbounds nuw i8, ptr %.sroa.0.06, i64 32
  %12 = load i32, ptr %11, align 8, !tbaa !156
  %13 = getelementptr inbounds nuw i8, ptr %.sroa.0.06, i64 40
  %14 = load ptr, ptr %9, align 8, !tbaa !61
  tail call void @_ZN6google8protobuf8internal12ExtensionSet26InternalExtensionMergeFromEPKNS0_11MessageLiteEiRKNS2_9ExtensionEPNS0_5ArenaE(ptr noundef nonnull align 8 dereferenceable(24) %6, ptr noundef %7, i32 noundef %12, ptr noundef nonnull readonly align 8 dereferenceable(24) %13, ptr noundef %14)
  %15 = tail call noundef ptr @_ZSt18_Rb_tree_incrementPSt18_Rb_tree_node_base(ptr noundef %.sroa.0.06) #34
  %.not = icmp eq ptr %15, %2
  br i1 %.not, label %._crit_edge, label %10, !llvm.loop !314
}